target datalayout = "e-m:e-p270:32:32-p271:32:32-p272:64:64-i64:64-i128:128-f80:128-n8:16:32:64-S128"
target triple = "x86_64-pc-linux-gnu"

@hf_x11_glx_DeleteQueriesARB_context_tag = internal global i32 0, align 4
@hf_x11_glx_DeleteQueriesARB_n = internal global i32 0, align 4
@hf_x11_glx_DeleteQueriesARB_ids = internal global i32 0, align 4
@hf_x11_glx_DeleteQueriesARB_ids_item = internal global i32 0, align 4
@ett_x11_list_of_card32 = internal global i32 0, align 4

; Function Attrs: null_pointer_is_valid sspstrong uwtable
define internal void @listOfCard32(ptr noundef %0, ptr noundef %1, ptr noundef %2, i32 noundef %3, i32 noundef %4, i32 noundef %5, i32 noundef %6) #1 {
  %8 = alloca ptr, align 8
  %9 = alloca ptr, align 8
  %10 = alloca ptr, align 8
  %11 = alloca i32, align 4
  %12 = alloca i32, align 4
  %13 = alloca i32, align 4
  %14 = alloca i32, align 4
  %15 = alloca ptr, align 8
  %16 = alloca ptr, align 8
  store ptr %0, ptr %8, align 8
  store ptr %1, ptr %9, align 8
  store ptr %2, ptr %10, align 8
  store i32 %3, ptr %11, align 4
  store i32 %4, ptr %12, align 4
  store i32 %5, ptr %13, align 4
  store i32 %6, ptr %14, align 4
  call void @llvm.lifetime.start.p0(i64 8, ptr %15) #11
  %17 = load ptr, ptr %10, align 8
  %18 = load i32, ptr %11, align 4
  %19 = load ptr, ptr %8, align 8
  %20 = load ptr, ptr %9, align 8
  %21 = load i32, ptr %20, align 4
  %22 = load i32, ptr %13, align 4
  %23 = mul i32 %22, 4
  %24 = load i32, ptr %14, align 4
  %25 = call ptr @proto_tree_add_item(ptr noundef %17, i32 noundef %18, ptr noundef %19, i32 noundef %21, i32 noundef %23, i32 noundef %24)
  store ptr %25, ptr %15, align 8
  call void @llvm.lifetime.start.p0(i64 8, ptr %16) #11
  %26 = load ptr, ptr %15, align 8
  %27 = load i32, ptr @ett_x11_list_of_card32, align 4
  %28 = call ptr @proto_item_add_subtree(ptr noundef %26, i32 noundef %27)
  store ptr %28, ptr %16, align 8
  br label %29

29:                                               ; preds = %33, %7
  %30 = load i32, ptr %13, align 4
  %31 = add i32 %30, -1
  store i32 %31, ptr %13, align 4
  %32 = icmp ne i32 %30, 0
  br i1 %32, label %33, label %44

33:                                               ; preds = %29
  %34 = load ptr, ptr %16, align 8
  %35 = load i32, ptr %12, align 4
  %36 = load ptr, ptr %8, align 8
  %37 = load ptr, ptr %9, align 8
  %38 = load i32, ptr %37, align 4
  %39 = load i32, ptr %14, align 4
  %40 = call ptr @proto_tree_add_item(ptr noundef %34, i32 noundef %35, ptr noundef %36, i32 noundef %38, i32 noundef 4, i32 noundef %39)
  %41 = load ptr, ptr %9, align 8
  %42 = load i32, ptr %41, align 4
  %43 = add i32 %42, 4
  store i32 %43, ptr %41, align 4
  br label %29, !llvm.loop !45

44:                                               ; preds = %29
  call void @llvm.lifetime.end.p0(i64 8, ptr %16) #11
  call void @llvm.lifetime.end.p0(i64 8, ptr %15) #11
  ret void
}

; Function Attrs: null_pointer_is_valid sspstrong uwtable
define internal void @glxDeleteQueriesARB(ptr noundef %0, ptr noundef %1, ptr noundef %2, ptr noundef %3, i32 noundef %4, i32 noundef %5) #1 {
  %7 = alloca ptr, align 8
  %8 = alloca ptr, align 8
  %9 = alloca ptr, align 8
  %10 = alloca ptr, align 8
  %11 = alloca i32, align 4
  %12 = alloca i32, align 4
  %13 = alloca i32, align 4
  store ptr %0, ptr %7, align 8
  store ptr %1, ptr %8, align 8
  store ptr %2, ptr %9, align 8
  store ptr %3, ptr %10, align 8
  store i32 %4, ptr %11, align 4
  store i32 %5, ptr %12, align 4
  call void @llvm.lifetime.start.p0(i64 4, ptr %13) #11
  %14 = load ptr, ptr %10, align 8
  %15 = load i32, ptr @hf_x11_glx_DeleteQueriesARB_context_tag, align 4
  %16 = load ptr, ptr %7, align 8
  %17 = load ptr, ptr %9, align 8
  %18 = load i32, ptr %17, align 4
  %19 = load i32, ptr %11, align 4
  %20 = call ptr @proto_tree_add_item(ptr noundef %14, i32 noundef %15, ptr noundef %16, i32 noundef %18, i32 noundef 4, i32 noundef %19)
  %21 = load ptr, ptr %9, align 8
  %22 = load i32, ptr %21, align 4
  %23 = add i32 %22, 4
  store i32 %23, ptr %21, align 4
  %24 = load ptr, ptr %7, align 8
  %25 = load ptr, ptr %9, align 8
  %26 = load i32, ptr %25, align 4
  %27 = load i32, ptr %11, align 4
  %28 = call i32 @tvb_get_uint32(ptr noundef %24, i32 noundef %26, i32 noundef %27)
  store i32 %28, ptr %13, align 4
  %29 = load ptr, ptr %10, align 8
  %30 = load i32, ptr @hf_x11_glx_DeleteQueriesARB_n, align 4
  %31 = load ptr, ptr %7, align 8
  %32 = load ptr, ptr %9, align 8
  %33 = load i32, ptr %32, align 4
  %34 = load i32, ptr %11, align 4
  %35 = call ptr @proto_tree_add_item(ptr noundef %29, i32 noundef %30, ptr noundef %31, i32 noundef %33, i32 noundef 4, i32 noundef %34)
  %36 = load ptr, ptr %9, align 8
  %37 = load i32, ptr %36, align 4
  %38 = add i32 %37, 4
  store i32 %38, ptr %36, align 4
  %39 = load ptr, ptr %7, align 8
  %40 = load ptr, ptr %9, align 8
  %41 = load ptr, ptr %10, align 8
  %42 = load i32, ptr @hf_x11_glx_DeleteQueriesARB_ids, align 4
  %43 = load i32, ptr @hf_x11_glx_DeleteQueriesARB_ids_item, align 4
  %44 = load i32, ptr %13, align 4
  %45 = load i32, ptr %11, align 4
  call void @listOfCard32(ptr noundef %39, ptr noundef %40, ptr noundef %41, i32 noundef %42, i32 noundef %43, i32 noundef %44, i32 noundef %45)
  %46 = load i32, ptr %13, align 4
  %47 = mul i32 %46, 4
  %48 = load i32, ptr %12, align 4
  %49 = sub i32 %48, %47
  store i32 %49, ptr %12, align 4
  call void @llvm.lifetime.end.p0(i64 4, ptr %13) #11
  ret void
}