; Function Attrs: null_pointer_is_valid sspstrong uwtable
define internal fastcc void @glxDeleteQueriesARB(ptr noundef %0, ptr noundef captures(none) %1, ptr noundef %2, i32 noundef %3) unnamed_addr #1 {
  %5 = load i32, ptr @hf_x11_glx_DeleteQueriesARB_context_tag, align 4
  %6 = load i32, ptr %1, align 4
  %7 = tail call ptr @proto_tree_add_item(ptr noundef %2, i32 noundef %5, ptr noundef %0, i32 noundef %6, i32 noundef 4, i32 noundef %3)
  %8 = load i32, ptr %1, align 4
  %9 = add i32 %8, 4
  store i32 %9, ptr %1, align 4
  %10 = tail call i32 @tvb_get_uint32(ptr noundef %0, i32 noundef %9, i32 noundef %3)
  %11 = load i32, ptr @hf_x11_glx_DeleteQueriesARB_n, align 4
  %12 = load i32, ptr %1, align 4
  %13 = tail call ptr @proto_tree_add_item(ptr noundef %2, i32 noundef %11, ptr noundef %0, i32 noundef %12, i32 noundef 4, i32 noundef %3)
  %14 = load i32, ptr %1, align 4
  %15 = add i32 %14, 4
  store i32 %15, ptr %1, align 4
  %16 = load i32, ptr @hf_x11_glx_DeleteQueriesARB_ids, align 4
  %17 = load i32, ptr @hf_x11_glx_DeleteQueriesARB_ids_item, align 4
  %18 = shl i32 %10, 2
  %19 = tail call ptr @proto_tree_add_item(ptr noundef %2, i32 noundef %16, ptr noundef %0, i32 noundef %15, i32 noundef %18, i32 noundef %3)
  %20 = load i32, ptr @ett_x11_list_of_card32, align 4
  %21 = tail call ptr @proto_item_add_subtree(ptr noundef %19, i32 noundef %20)
  %.not13.i = icmp eq i32 %10, 0
  br i1 %.not13.i, label %listOfCard32.exit, label %.lr.ph.preheader.i

.lr.ph.preheader.i:                               ; preds = %4
  %.pre.i = load i32, ptr %1, align 4
  br label %.lr.ph.i

.lr.ph.i:                                         ; preds = %.lr.ph.i, %.lr.ph.preheader.i
  %22 = phi i32 [ %26, %.lr.ph.i ], [ %.pre.i, %.lr.ph.preheader.i ]
  %.014.i = phi i32 [ %23, %.lr.ph.i ], [ %10, %.lr.ph.preheader.i ]
  %23 = add i32 %.014.i, -1
  %24 = tail call ptr @proto_tree_add_item(ptr noundef %21, i32 noundef %17, ptr noundef %0, i32 noundef %22, i32 noundef 4, i32 noundef %3)
  %25 = load i32, ptr %1, align 4
  %26 = add i32 %25, 4
  store i32 %26, ptr %1, align 4
  %.not.i = icmp eq i32 %23, 0
  br i1 %.not.i, label %listOfCard32.exit, label %.lr.ph.i, !llvm.loop !44

listOfCard32.exit:                                ; preds = %.lr.ph.i, %4
  ret void
}